; Function Attrs: nounwind uwtable
define ptr @l_Lean_Meta_SynthInstance_main___lambda__1(ptr noundef %0, ptr noundef %1, ptr noundef %2, ptr noundef %3, ptr readnone captures(none) %4, ptr noundef %5, ptr noundef %6, ptr noundef %7) local_unnamed_addr #1 {
  %9 = tail call zeroext i8 @l_Lean_Exception_isRuntime(ptr noundef %0) #7
  %10 = icmp eq i8 %9, 0
  br i1 %10, label %11, label %27

11:                                               ; preds = %8
  %12 = ptrtoint ptr %1 to i64
  %13 = and i64 %12, 1
  %.not = icmp eq i64 %13, 0
  br i1 %.not, label %14, label %lean_dec.exit

14:                                               ; preds = %11
  %15 = load i32, ptr %1, align 4, !tbaa !4
  %16 = icmp sgt i32 %15, 1
  br i1 %16, label %17, label %19, !prof !11

17:                                               ; preds = %14
  %18 = add nsw i32 %15, -1
  store i32 %18, ptr %1, align 4, !tbaa !4
  br label %lean_dec.exit

19:                                               ; preds = %14
  %.not.i = icmp eq i32 %15, 0
  br i1 %.not.i, label %lean_dec.exit, label %20

20:                                               ; preds = %19
  tail call void @lean_dec_ref_cold(ptr noundef nonnull %1) #7
  br label %lean_dec.exit

lean_dec.exit:                                    ; preds = %20, %19, %17, %11
  tail call void @lean_inc_heartbeat() #7
  %21 = tail call noalias ptr @mi_malloc_small(i64 noundef 24) #7
  %22 = icmp eq ptr %21, null
  br i1 %22, label %23, label %lean_alloc_ctor.exit

23:                                               ; preds = %lean_dec.exit
  tail call void @lean_internal_panic_out_of_memory() #8
  unreachable

lean_alloc_ctor.exit:                             ; preds = %lean_dec.exit
  %24 = getelementptr inbounds nuw i8, ptr %21, i64 4
  store i32 1, ptr %21, align 4, !tbaa !4
  store i32 16908312, ptr %24, align 4
  %25 = getelementptr inbounds nuw i8, ptr %21, i64 8
  store ptr %0, ptr %25, align 8, !tbaa !9
  %26 = getelementptr inbounds nuw i8, ptr %21, i64 16
  store ptr %7, ptr %26, align 8, !tbaa !9
  br label %71

27:                                               ; preds = %8
  %28 = tail call ptr @l_Lean_indentExpr(ptr noundef %1) #7
  %29 = load ptr, ptr @l_Lean_Meta_SynthInstance_main___lambda__1___closed__2, align 8, !tbaa !9
  tail call void @lean_inc_heartbeat() #7
  %30 = tail call noalias ptr @mi_malloc_small(i64 noundef 24) #7
  %31 = icmp eq ptr %30, null
  br i1 %31, label %32, label %lean_alloc_ctor.exit41

32:                                               ; preds = %27
  tail call void @lean_internal_panic_out_of_memory() #8
  unreachable

lean_alloc_ctor.exit41:                           ; preds = %27
  %33 = getelementptr inbounds nuw i8, ptr %30, i64 4
  store i32 1, ptr %30, align 4, !tbaa !4
  store i32 117571608, ptr %33, align 4
  %34 = getelementptr inbounds nuw i8, ptr %30, i64 8
  store ptr %29, ptr %34, align 8, !tbaa !9
  %35 = getelementptr inbounds nuw i8, ptr %30, i64 16
  store ptr %28, ptr %35, align 8, !tbaa !9
  %36 = load ptr, ptr @l_Lean_Meta_SynthInstance_main___lambda__1___closed__4, align 8, !tbaa !9
  tail call void @lean_inc_heartbeat() #7
  %37 = tail call noalias ptr @mi_malloc_small(i64 noundef 24) #7
  %38 = icmp eq ptr %37, null
  br i1 %38, label %39, label %lean_alloc_ctor.exit42

39:                                               ; preds = %lean_alloc_ctor.exit41
  tail call void @lean_internal_panic_out_of_memory() #8
  unreachable

lean_alloc_ctor.exit42:                           ; preds = %lean_alloc_ctor.exit41
  %40 = getelementptr inbounds nuw i8, ptr %37, i64 4
  store i32 1, ptr %37, align 4, !tbaa !4
  store i32 117571608, ptr %40, align 4
  %41 = getelementptr inbounds nuw i8, ptr %37, i64 8
  store ptr %30, ptr %41, align 8, !tbaa !9
  %42 = getelementptr inbounds nuw i8, ptr %37, i64 16
  store ptr %36, ptr %42, align 8, !tbaa !9
  %43 = tail call ptr @l_Lean_Exception_toMessageData(ptr noundef %0) #7
  tail call void @lean_inc_heartbeat() #7
  %44 = tail call noalias ptr @mi_malloc_small(i64 noundef 24) #7
  %45 = icmp eq ptr %44, null
  br i1 %45, label %46, label %lean_alloc_ctor.exit43

46:                                               ; preds = %lean_alloc_ctor.exit42
  tail call void @lean_internal_panic_out_of_memory() #8
  unreachable

lean_alloc_ctor.exit43:                           ; preds = %lean_alloc_ctor.exit42
  %47 = getelementptr inbounds nuw i8, ptr %44, i64 4
  store i32 1, ptr %44, align 4, !tbaa !4
  store i32 117571608, ptr %47, align 4
  %48 = getelementptr inbounds nuw i8, ptr %44, i64 8
  store ptr %37, ptr %48, align 8, !tbaa !9
  %49 = getelementptr inbounds nuw i8, ptr %44, i64 16
  store ptr %43, ptr %49, align 8, !tbaa !9
  %50 = load ptr, ptr @l_Lean_Meta_SynthInstance_getInstances___lambda__2___closed__3, align 8, !tbaa !9
  tail call void @lean_inc_heartbeat() #7
  %51 = tail call noalias ptr @mi_malloc_small(i64 noundef 24) #7
  %52 = icmp eq ptr %51, null
  br i1 %52, label %53, label %lean_alloc_ctor.exit44

53:                                               ; preds = %lean_alloc_ctor.exit43
  tail call void @lean_internal_panic_out_of_memory() #8
  unreachable

lean_alloc_ctor.exit44:                           ; preds = %lean_alloc_ctor.exit43
  %54 = getelementptr inbounds nuw i8, ptr %51, i64 4
  store i32 1, ptr %51, align 4, !tbaa !4
  store i32 117571608, ptr %54, align 4
  %55 = getelementptr inbounds nuw i8, ptr %51, i64 8
  store ptr %44, ptr %55, align 8, !tbaa !9
  %56 = getelementptr inbounds nuw i8, ptr %51, i64 16
  store ptr %50, ptr %56, align 8, !tbaa !9
  %57 = load ptr, ptr @l_Lean_useDiagnosticMsg, align 8, !tbaa !9
  tail call void @lean_inc_heartbeat() #7
  %58 = tail call noalias ptr @mi_malloc_small(i64 noundef 24) #7
  %59 = icmp eq ptr %58, null
  br i1 %59, label %60, label %lean_alloc_ctor.exit45

60:                                               ; preds = %lean_alloc_ctor.exit44
  tail call void @lean_internal_panic_out_of_memory() #8
  unreachable

lean_alloc_ctor.exit45:                           ; preds = %lean_alloc_ctor.exit44
  %61 = getelementptr inbounds nuw i8, ptr %58, i64 4
  store i32 1, ptr %58, align 4, !tbaa !4
  store i32 117571608, ptr %61, align 4
  %62 = getelementptr inbounds nuw i8, ptr %58, i64 8
  store ptr %51, ptr %62, align 8, !tbaa !9
  %63 = getelementptr inbounds nuw i8, ptr %58, i64 16
  store ptr %57, ptr %63, align 8, !tbaa !9
  tail call void @lean_inc_heartbeat() #7
  %64 = tail call noalias ptr @mi_malloc_small(i64 noundef 24) #7
  %65 = icmp eq ptr %64, null
  br i1 %65, label %66, label %lean_alloc_ctor.exit46

66:                                               ; preds = %lean_alloc_ctor.exit45
  tail call void @lean_internal_panic_out_of_memory() #8
  unreachable

lean_alloc_ctor.exit46:                           ; preds = %lean_alloc_ctor.exit45
  %67 = getelementptr inbounds nuw i8, ptr %64, i64 4
  store i32 1, ptr %64, align 4, !tbaa !4
  store i32 117571608, ptr %67, align 4
  %68 = getelementptr inbounds nuw i8, ptr %64, i64 8
  store ptr %58, ptr %68, align 8, !tbaa !9
  %69 = getelementptr inbounds nuw i8, ptr %64, i64 16
  store ptr %50, ptr %69, align 8, !tbaa !9
  %70 = tail call ptr @l_Lean_throwError___at_Lean_Meta_SynthInstance_main___spec__2(ptr noundef nonnull %64, ptr noundef %2, ptr noundef %3, ptr noundef %5, ptr noundef %6, ptr noundef %7)
  br label %71

71:                                               ; preds = %lean_alloc_ctor.exit46, %lean_alloc_ctor.exit
  %.0 = phi ptr [ %21, %lean_alloc_ctor.exit ], [ %70, %lean_alloc_ctor.exit46 ]
  ret ptr %.0
}